Certificate:
    Data:
        Version: 3 (0x2)
        Serial Number: 13614286650771684059 (0xbcefa993c996badb)
    Signature Algorithm: sha256WithRSAEncryption
        Issuer: C=DE, ST=NRW, O=till.net, OU=SecyrIT, CN=vpn.tillnet.de_CA/emailAddress=technik@till.net
        Validity
            Not Before: Apr  1 10:11:12 2017 GMT
            Not After : Jul  1 17:36:32 2027 GMT
        Subject: CN=b8:27:eb:3a:5f:66\x0A/emailAddress=test@abc.net
        Subject Public Key Info:
            Public Key Algorithm: rsaEncryption
                Public-Key: (2048 bit)
                Modulus:
                    00:c5:22:f6:6a:3e:08:46:d2:9c:04:75:45:2a:3d:
                    a2:9e:22:85:ae:62:af:77:2f:8e:fe:c3:aa:04:59:
                    47:ad:fb:df:7d:3d:72:fc:36:9a:94:a6:14:42:7b:
                    4c:ee:04:83:77:9c:15:39:f1:f5:7d:24:93:65:18:
                    15:b4:60:41:2c:19:84:8f:43:36:7f:44:8b:cd:29:
                    bd:50:8b:7e:b4:18:af:87:c2:62:c1:eb:8b:7a:7e:
                    46:6b:67:d2:73:37:27:d0:8d:ad:1b:50:9e:da:81:
                    94:e0:9b:7a:c8:53:93:70:10:80:6d:1b:7c:47:f3:
                    78:46:ed:dc:df:5b:fd:6f:fe:56:96:6b:20:ab:06:
                    61:5c:6e:bf:aa:33:1f:99:c0:9c:c0:78:f4:80:4f:
                    b8:03:08:be:5b:34:85:ce:95:9d:24:d1:0a:f3:32:
                    1d:ac:47:4c:a8:4a:bf:60:84:70:1e:40:22:c0:a8:
                    a2:0a:24:b3:55:9f:d6:84:b9:9c:75:d5:6e:b5:0c:
                    e6:d9:19:a1:05:5b:1b:23:1b:22:17:fd:60:4e:62:
                    97:fa:b5:94:8d:19:b4:5a:3e:13:1e:be:44:9c:b7:
                    f3:4e:bf:07:80:6b:25:35:35:0c:97:1b:47:b7:8c:
                    70:34:25:d2:d3:ef:62:20:01:e2:88:1a:12:86:51:
                    45:0f
                Exponent: 3 (0x3)
        X509v3 extensions:
            X509v3 Basic Constraints: 
                CA:FALSE
            Netscape Comment: 
                SecyrIT
            X509v3 Subject Key Identifier: 
                42:5B:D0:56:27:90:C9:08:D5:71:DF:8C:C9:61:23:E8:6B:28:1F:CE
            X509v3 Authority Key Identifier: 
                keyid:E7:EB:35:7B:04:52:42:23:79:AA:11:31:A9:87:76:0C:E2:BD:DF:48
                DirName:/C=DE/ST=NRW/O=till.net/OU=SecyrIT/CN=vpn.tillnet.de_CA/emailAddress=technik@till.net
                serial:BC:EF:A9:93:C9:96:BA:D6

            X509v3 Extended Key Usage: 
                TLS Web Client Authentication
            X509v3 Key Usage: 
                Digital Signature
    Signature Algorithm: sha256WithRSAEncryption
         7b:13:28:8a:54:e8:a7:85:62:ce:56:c4:1e:2f:9b:02:50:da:
         50:be:67:5c:21:d4:24:94:41:9a:5c:4d:2a:e8:c8:c3:0f:2a:
         a9:34:10:4e:70:e3:df:2d:bc:cd:7e:c4:85:f1:69:b6:14:73:
         e3:7c:69:a1:5b:ea:ac:a7:cd:e4:39:50:f0:ba:17:a4:94:a2:
         e4:7c:49:d4:1e:b7:52:b3:37:ce:9d:cf:92:18:89:db:c8:8b:
         98:d7:cd:d1:a1:2e:4e:9b:f1:85:53:55:ee:1a:db:60:0f:1f:
         6b:c2:67:90:54:12:10:74:f8:57:ec:11:fb:6c:a3:c0:6c:cd:
         cb:63:9f:81:2c:ca:91:45:b6:59:44:6d:f0:c3:d2:4d:2b:81:
         83:21:1e:3e:a3:39:da:a6:51:53:2e:f9:4c:fb:dd:8c:02:a4:
         15:8d:c8:17:f5:97:68:aa:13:73:88:10:0d:11:da:1c:1f:97:
         87:47:82:27:79:90:dc:fd:f4:a7:a1:01:63:52:c3:d3:a1:4e:
         95:08:8d:93:7f:d6:6b:ca:cc:d0:10:2c:d3:f6:ed:fc:48:e7:
         a8:e9:c4:b0:8e:89:d3:5f:03:d1:67:d2:2c:46:14:96:c3:0d:
         f9:67:a4:54:3b:a1:a2:07:5b:36:99:ec:fc:2b:ed:9c:48:3c:
         82:2e:19:fb
-----BEGIN CERTIFICATE-----
MIIEVTCCAz2gAwIBAgIJALzvqZPJlrrbMA0GCSqGSIb3DQEBCwUAMH0xCzAJBgNV
BAYTAkRFMQwwCgYDVQQIDANOUlcxETAPBgNVBAoMCHRpbGwubmV0MRAwDgYDVQQL
DAdTZWN5cklUMRowGAYDVQQDDBF2cG4udGlsbG5ldC5kZV9DQTEfMB0GCSqGSIb3
DQEJARYQdGVjaG5pa0B0aWxsLm5ldDAeFw0xNzA0MDExMDExMTJaFw0yNzA3MDEx
NzM2MzJaMDoxGzAZBgNVBAMMEmI4OjI3OmViOjNhOjVmOjY2CjEbMBkGCSqGSIb3
DQEJARYMdGVzdEBhYmMubmV0MIIBIDANBgkqhkiG9w0BAQEFAAOCAQ0AMIIBCAKC
AQEAxSL2aj4IRtKcBHVFKj2iniKFrmKvdy+O/sOqBFlHrfvffT1y/DaalKYUQntM
7gSDd5wVOfH1fSSTZRgVtGBBLBmEj0M2f0SLzSm9UIt+tBivh8JiweuLen5Ga2fS
czcn0I2tG1Ce2oGU4Jt6yFOTcBCAbRt8R/N4Ru3c31v9b/5WlmsgqwZhXG6/qjMf
mcCcwHj0gE+4Awi+WzSFzpWdJNEK8zIdrEdMqEq/YIRwHkAiwKiiCiSzVZ/WhLmc
ddVutQzm2RmhBVsbIxsiF/1gTmKX+rWUjRm0Wj4THr5EnLfzTr8HgGslNTUMlxtH
t4xwNCXS0+9iIAHiiBoShlFFDwIBA6OCARswggEXMAkGA1UdEwQCMAAwFgYJYIZI
AYb4QgENBAkWB1NlY3lySVQwHQYDVR0OBBYEFEJb0FYnkMkI1XHfjMlhI+hrKB/O
MIGwBgNVHSMEgagwgaWAFOfrNXsEUkIjeaoRMamHdgzivd9IoYGBpH8wfTELMAkG
A1UEBhMCREUxDDAKBgNVBAgMA05SVzERMA8GA1UECgwIdGlsbC5uZXQxEDAOBgNV
BAsMB1NlY3lySVQxGjAYBgNVBAMMEXZwbi50aWxsbmV0LmRlX0NBMR8wHQYJKoZI
hvcNAQkBFhB0ZWNobmlrQHRpbGwubmV0ggkAvO+pk8mWutYwEwYDVR0lBAwwCgYI
KwYBBQUHAwIwCwYDVR0PBAQDAgeAMA0GCSqGSIb3DQEBCwUAA4IBAQB7EyiKVOin
hWLOVsQeL5sCUNpQvmdcIdQklEGaXE0q6MjDDyqpNBBOcOPfLbzNfsSF8Wm2FHPj
fGmhW+qsp83kOVDwuheklKLkfEnUHrdSszfOnc+SGInbyIuY183RoS5Om/GFU1Xu
GttgDx9rwmeQVBIQdPhX7BH7bKPAbM3LY5+BLMqRRbZZRG3ww9JNK4GDIR4+ozna
plFTLvlM+92MAqQVjcgX9ZdoqhNziBANEdocH5eHR4IneZDc/fSnoQFjUsPToU6V
CI2Tf9ZryszQECzT9u38SOeo6cSwjonTXwPRZ9IsRhSWww35Z6RUO6GiB1s2mez8
K+2cSDyCLhn7
-----END CERTIFICATE-----
